target datalayout = "e-m:e-p270:32:32-p271:32:32-p272:64:64-i64:64-i128:128-f80:128-n8:16:32:64-S128"
target triple = "x86_64-pc-linux-gnu"

%struct.slurm_step_id_msg = type { i64, i32, i32, i32 }
%struct.step_launch_state = type { %union.pthread_mutex_t, %union.pthread_cond_t, i32, ptr, ptr, ptr, i64, i8, ptr, i32, i8, i8, i8, i32, ptr, i64, i32, i16, ptr, ptr, ptr, [1 x %struct.mpi_step_info_t], ptr, i32, %struct.slurm_step_launch_callbacks_t }
%union.pthread_mutex_t = type { %struct.__pthread_mutex_s }
%struct.__pthread_mutex_s = type { i32, i32, i32, i32, i32, i16, i16, %struct.__pthread_internal_list }
%struct.__pthread_internal_list = type { ptr, ptr }
%union.pthread_cond_t = type { %struct.__pthread_cond_s }
%struct.__pthread_cond_s = type { %union.__atomic_wide_counter, %union.__atomic_wide_counter, [2 x i32], [2 x i32], i32, i32, [2 x i32] }
%union.__atomic_wide_counter = type { i64 }
%struct.mpi_step_info_t = type { i32, i32, %struct.slurm_step_id_msg, ptr }
%struct.slurm_step_launch_callbacks_t = type { ptr, ptr, ptr, ptr, ptr }
%struct.slurm_step_layout = type { ptr, i32, ptr, ptr, ptr, i32, ptr, i16, i16, ptr, i32, i32, ptr }
%struct.timespec = type { i64, i64 }

@.str.2 = private unnamed_addr constant [14 x i8] c"step_launch.c\00", align 1
@.str.3 = private unnamed_addr constant [29 x i8] c"%s: pthread_mutex_lock(): %m\00", align 1
@.str.4 = private unnamed_addr constant [31 x i8] c"%s: pthread_mutex_unlock(): %m\00", align 1
@.str.6 = private unnamed_addr constant [39 x i8] c"%s:%d %s: pthread_cond_broadcast(): %m\00", align 1
@.str.7 = private unnamed_addr constant [34 x i8] c"%s:%d %s: pthread_cond_wait(): %m\00", align 1
@__func__._check_io_timeout = private unnamed_addr constant [18 x i8] c"_check_io_timeout\00", align 1
@.str.75 = private unnamed_addr constant [48 x i8] c"Cannot communicate with node %d.  Aborting job.\00", align 1
@.str.76 = private unnamed_addr constant [63 x i8] c"io timeout thread: no pending deadlines, sleeping indefinitely\00", align 1
@.str.77 = private unnamed_addr constant [48 x i8] c"io timeout thread: sleeping %lds until deadline\00", align 1
@.str.78 = private unnamed_addr constant [39 x i8] c"%s:%d %s: pthread_cond_timedwait(): %m\00", align 1

; Function Attrs: nounwind uwtable
define internal ptr @_check_io_timeout(ptr noundef %0) #0 {
  %2 = alloca ptr, align 8
  %3 = alloca i32, align 4
  %4 = alloca i64, align 8
  %5 = alloca i64, align 8
  %6 = alloca %struct.timespec, align 8
  %7 = alloca ptr, align 8
  %8 = alloca i32, align 4
  %9 = alloca i32, align 4
  %10 = alloca i32, align 4
  %11 = alloca i32, align 4
  %12 = alloca i32, align 4
  store ptr %0, ptr %2, align 8
  call void @llvm.lifetime.start.p0(i64 4, ptr %3) #10
  call void @llvm.lifetime.start.p0(i64 8, ptr %4) #10
  call void @llvm.lifetime.start.p0(i64 8, ptr %5) #10
  call void @llvm.lifetime.start.p0(i64 16, ptr %6) #10
  call void @llvm.memset.p0.i64(ptr align 8 %6, i8 0, i64 16, i1 false)
  call void @llvm.lifetime.start.p0(i64 8, ptr %7) #10
  %13 = load ptr, ptr %2, align 8
  store ptr %13, ptr %7, align 8
  br label %14

14:                                               ; preds = %1
  call void @llvm.lifetime.start.p0(i64 4, ptr %8) #10
  %15 = load ptr, ptr %7, align 8
  %16 = getelementptr inbounds nuw %struct.step_launch_state, ptr %15, i32 0, i32 0
  %17 = call i32 @pthread_mutex_lock(ptr noundef %16) #10
  store i32 %17, ptr %8, align 4
  %18 = load i32, ptr %8, align 4
  %19 = icmp ne i32 %18, 0
  br i1 %19, label %20, label %23

20:                                               ; preds = %14
  %21 = load i32, ptr %8, align 4
  %22 = call ptr @__errno_location() #11
  store i32 %21, ptr %22, align 4
  call void (ptr, ...) @fatal_abort(ptr noundef @.str.3, ptr noundef @__func__._check_io_timeout) #12
  unreachable

23:                                               ; preds = %14
  call void @llvm.lifetime.end.p0(i64 4, ptr %8) #10
  br label %24

24:                                               ; preds = %23
  br label %25

25:                                               ; preds = %24
  br label %26

26:                                               ; preds = %181, %25
  br label %27

27:                                               ; preds = %26
  %28 = load ptr, ptr %7, align 8
  %29 = getelementptr inbounds nuw %struct.step_launch_state, ptr %28, i32 0, i32 10
  %30 = load i8, ptr %29, align 4, !range !8, !noundef !9
  %31 = trunc i8 %30 to i1
  br i1 %31, label %37, label %32

32:                                               ; preds = %27
  %33 = load ptr, ptr %7, align 8
  %34 = getelementptr inbounds nuw %struct.step_launch_state, ptr %33, i32 0, i32 11
  %35 = load i8, ptr %34, align 1, !range !8, !noundef !9
  %36 = trunc i8 %35 to i1
  br i1 %36, label %37, label %38

37:                                               ; preds = %32, %27
  br label %182

38:                                               ; preds = %32
  %39 = call i64 @time(ptr noundef null) #10
  store i64 %39, ptr %4, align 8
  store i64 4294967294, ptr %5, align 8
  store i32 0, ptr %3, align 4
  br label %40

40:                                               ; preds = %109, %38
  %41 = load i32, ptr %3, align 4
  %42 = load ptr, ptr %7, align 8
  %43 = getelementptr inbounds nuw %struct.step_launch_state, ptr %42, i32 0, i32 20
  %44 = load ptr, ptr %43, align 8
  %45 = getelementptr inbounds nuw %struct.slurm_step_layout, ptr %44, i32 0, i32 5
  %46 = load i32, ptr %45, align 8
  %47 = icmp ult i32 %41, %46
  br i1 %47, label %48, label %112

48:                                               ; preds = %40
  %49 = load ptr, ptr %7, align 8
  %50 = getelementptr inbounds nuw %struct.step_launch_state, ptr %49, i32 0, i32 8
  %51 = load ptr, ptr %50, align 8
  %52 = load i32, ptr %3, align 4
  %53 = sext i32 %52 to i64
  %54 = getelementptr inbounds i64, ptr %51, i64 %53
  %55 = load i64, ptr %54, align 8
  %56 = icmp eq i64 %55, 4294967294
  br i1 %56, label %57, label %58

57:                                               ; preds = %48
  br label %109

58:                                               ; preds = %48
  %59 = load ptr, ptr %7, align 8
  %60 = getelementptr inbounds nuw %struct.step_launch_state, ptr %59, i32 0, i32 8
  %61 = load ptr, ptr %60, align 8
  %62 = load i32, ptr %3, align 4
  %63 = sext i32 %62 to i64
  %64 = getelementptr inbounds i64, ptr %61, i64 %63
  %65 = load i64, ptr %64, align 8
  %66 = load i64, ptr %4, align 8
  %67 = icmp sle i64 %65, %66
  br i1 %67, label %68, label %86

68:                                               ; preds = %58
  %69 = load ptr, ptr %7, align 8
  %70 = getelementptr inbounds nuw %struct.step_launch_state, ptr %69, i32 0, i32 11
  store i8 1, ptr %70, align 1
  br label %71

71:                                               ; preds = %68
  call void @llvm.lifetime.start.p0(i64 4, ptr %9) #10
  %72 = load ptr, ptr %7, align 8
  %73 = getelementptr inbounds nuw %struct.step_launch_state, ptr %72, i32 0, i32 1
  %74 = call i32 @pthread_cond_broadcast(ptr noundef %73) #10
  store i32 %74, ptr %9, align 4
  %75 = load i32, ptr %9, align 4
  %76 = icmp ne i32 %75, 0
  br i1 %76, label %77, label %81

77:                                               ; preds = %71
  %78 = load i32, ptr %9, align 4
  %79 = call ptr @__errno_location() #11
  store i32 %78, ptr %79, align 4
  %80 = call i32 (ptr, ...) @error(ptr noundef @.str.6, ptr noundef @.str.2, i32 noundef 1835, ptr noundef @__func__._check_io_timeout)
  br label %81

81:                                               ; preds = %77, %71
  call void @llvm.lifetime.end.p0(i64 4, ptr %9) #10
  br label %82

82:                                               ; preds = %81
  br label %83

83:                                               ; preds = %82
  %84 = load i32, ptr %3, align 4
  %85 = call i32 (ptr, ...) @error(ptr noundef @.str.75, i32 noundef %84)
  br label %112

86:                                               ; preds = %58
  %87 = load i64, ptr %5, align 8
  %88 = icmp eq i64 %87, 4294967294
  br i1 %88, label %99, label %89

89:                                               ; preds = %86
  %90 = load ptr, ptr %7, align 8
  %91 = getelementptr inbounds nuw %struct.step_launch_state, ptr %90, i32 0, i32 8
  %92 = load ptr, ptr %91, align 8
  %93 = load i32, ptr %3, align 4
  %94 = sext i32 %93 to i64
  %95 = getelementptr inbounds i64, ptr %92, i64 %94
  %96 = load i64, ptr %95, align 8
  %97 = load i64, ptr %5, align 8
  %98 = icmp slt i64 %96, %97
  br i1 %98, label %99, label %107

99:                                               ; preds = %89, %86
  %100 = load ptr, ptr %7, align 8
  %101 = getelementptr inbounds nuw %struct.step_launch_state, ptr %100, i32 0, i32 8
  %102 = load ptr, ptr %101, align 8
  %103 = load i32, ptr %3, align 4
  %104 = sext i32 %103 to i64
  %105 = getelementptr inbounds i64, ptr %102, i64 %104
  %106 = load i64, ptr %105, align 8
  store i64 %106, ptr %5, align 8
  br label %107

107:                                              ; preds = %99, %89
  br label %108

108:                                              ; preds = %107
  br label %109

109:                                              ; preds = %108, %57
  %110 = load i32, ptr %3, align 4
  %111 = add nsw i32 %110, 1
  store i32 %111, ptr %3, align 4
  br label %40, !llvm.loop !29

112:                                              ; preds = %83, %40
  %113 = load ptr, ptr %7, align 8
  %114 = getelementptr inbounds nuw %struct.step_launch_state, ptr %113, i32 0, i32 11
  %115 = load i8, ptr %114, align 1, !range !8, !noundef !9
  %116 = trunc i8 %115 to i1
  br i1 %116, label %117, label %118

117:                                              ; preds = %112
  br label %182

118:                                              ; preds = %112
  %119 = load i64, ptr %5, align 8
  %120 = icmp eq i64 %119, 4294967294
  br i1 %120, label %121, label %147

121:                                              ; preds = %118
  br label %122

122:                                              ; preds = %121
  br label %123

123:                                              ; preds = %122
  %124 = call i32 @get_log_level()
  %125 = icmp sge i32 %124, 5
  br i1 %125, label %126, label %127

126:                                              ; preds = %123
  call void (i32, ptr, ...) @log_var(i32 noundef 5, ptr noundef @.str.76)
  br label %127

127:                                              ; preds = %126, %123
  br label %128

128:                                              ; preds = %127
  br label %129

129:                                              ; preds = %128
  br label %130

130:                                              ; preds = %129
  br label %131

131:                                              ; preds = %130
  br label %132

132:                                              ; preds = %131
  call void @llvm.lifetime.start.p0(i64 4, ptr %10) #10
  %133 = load ptr, ptr %7, align 8
  %134 = getelementptr inbounds nuw %struct.step_launch_state, ptr %133, i32 0, i32 1
  %135 = load ptr, ptr %7, align 8
  %136 = getelementptr inbounds nuw %struct.step_launch_state, ptr %135, i32 0, i32 0
  %137 = call i32 @pthread_cond_wait(ptr noundef %134, ptr noundef %136)
  store i32 %137, ptr %10, align 4
  %138 = load i32, ptr %10, align 4
  %139 = icmp ne i32 %138, 0
  br i1 %139, label %140, label %144

140:                                              ; preds = %132
  %141 = load i32, ptr %10, align 4
  %142 = call ptr @__errno_location() #11
  store i32 %141, ptr %142, align 4
  %143 = call i32 (ptr, ...) @error(ptr noundef @.str.7, ptr noundef @.str.2, i32 noundef 1850, ptr noundef @__func__._check_io_timeout)
  br label %144

144:                                              ; preds = %140, %132
  call void @llvm.lifetime.end.p0(i64 4, ptr %10) #10
  br label %145

145:                                              ; preds = %144
  br label %146

146:                                              ; preds = %145
  br label %181

147:                                              ; preds = %118
  br label %148

148:                                              ; preds = %147
  br label %149

149:                                              ; preds = %148
  %150 = call i32 @get_log_level()
  %151 = icmp sge i32 %150, 5
  br i1 %151, label %152, label %156

152:                                              ; preds = %149
  %153 = load i64, ptr %5, align 8
  %154 = call i64 @time(ptr noundef null) #10
  %155 = sub nsw i64 %153, %154
  call void (i32, ptr, ...) @log_var(i32 noundef 5, ptr noundef @.str.77, i64 noundef %155)
  br label %156

156:                                              ; preds = %152, %149
  br label %157

157:                                              ; preds = %156
  br label %158

158:                                              ; preds = %157
  br label %159

159:                                              ; preds = %158
  br label %160

160:                                              ; preds = %159
  %161 = load i64, ptr %5, align 8
  %162 = getelementptr inbounds nuw %struct.timespec, ptr %6, i32 0, i32 0
  store i64 %161, ptr %162, align 8
  br label %163

163:                                              ; preds = %160
  call void @llvm.lifetime.start.p0(i64 4, ptr %11) #10
  %164 = load ptr, ptr %7, align 8
  %165 = getelementptr inbounds nuw %struct.step_launch_state, ptr %164, i32 0, i32 1
  %166 = load ptr, ptr %7, align 8
  %167 = getelementptr inbounds nuw %struct.step_launch_state, ptr %166, i32 0, i32 0
  %168 = call i32 @pthread_cond_timedwait(ptr noundef %165, ptr noundef %167, ptr noundef %6)
  store i32 %168, ptr %11, align 4
  %169 = load i32, ptr %11, align 4
  %170 = icmp ne i32 %169, 0
  br i1 %170, label %171, label %178

171:                                              ; preds = %163
  %172 = load i32, ptr %11, align 4
  %173 = icmp ne i32 %172, 110
  br i1 %173, label %174, label %178

174:                                              ; preds = %171
  %175 = load i32, ptr %11, align 4
  %176 = call ptr @__errno_location() #11
  store i32 %175, ptr %176, align 4
  %177 = call i32 (ptr, ...) @error(ptr noundef @.str.78, ptr noundef @.str.2, i32 noundef 1855, ptr noundef @__func__._check_io_timeout)
  br label %178

178:                                              ; preds = %174, %171, %163
  call void @llvm.lifetime.end.p0(i64 4, ptr %11) #10
  br label %179

179:                                              ; preds = %178
  br label %180

180:                                              ; preds = %179
  br label %181

181:                                              ; preds = %180, %146
  br label %26, !llvm.loop !30

182:                                              ; preds = %117, %37
  br label %183

183:                                              ; preds = %182
  call void @llvm.lifetime.start.p0(i64 4, ptr %12) #10
  %184 = load ptr, ptr %7, align 8
  %185 = getelementptr inbounds nuw %struct.step_launch_state, ptr %184, i32 0, i32 0
  %186 = call i32 @pthread_mutex_unlock(ptr noundef %185) #10
  store i32 %186, ptr %12, align 4
  %187 = load i32, ptr %12, align 4
  %188 = icmp ne i32 %187, 0
  br i1 %188, label %189, label %192

189:                                              ; preds = %183
  %190 = load i32, ptr %12, align 4
  %191 = call ptr @__errno_location() #11
  store i32 %190, ptr %191, align 4
  call void (ptr, ...) @fatal_abort(ptr noundef @.str.4, ptr noundef @__func__._check_io_timeout) #12
  unreachable

192:                                              ; preds = %183
  call void @llvm.lifetime.end.p0(i64 4, ptr %12) #10
  br label %193

193:                                              ; preds = %192
  br label %194

194:                                              ; preds = %193
  call void @llvm.lifetime.end.p0(i64 8, ptr %7) #10
  call void @llvm.lifetime.end.p0(i64 16, ptr %6) #10
  call void @llvm.lifetime.end.p0(i64 8, ptr %5) #10
  call void @llvm.lifetime.end.p0(i64 8, ptr %4) #10
  call void @llvm.lifetime.end.p0(i64 4, ptr %3) #10
  ret ptr null
}