; Function Attrs: nounwind uwtable
define internal noalias noundef ptr @_check_io_timeout(ptr noundef %0) #3 {
  %2 = alloca %struct.timespec, align 8
  call void @llvm.lifetime.start.p0(i64 16, ptr nonnull %2) #14
  call void @llvm.memset.p0.i64(ptr noundef nonnull align 8 dereferenceable(16) %2, i8 0, i64 16, i1 false)
  %3 = tail call i32 @pthread_mutex_lock(ptr noundef %0) #14
  %.not = icmp eq i32 %3, 0
  br i1 %.not, label %.preheader, label %11

.preheader:                                       ; preds = %1
  %4 = getelementptr inbounds nuw i8, ptr %0, i64 148
  %5 = load i8, ptr %4, align 4, !range !8, !noundef !9
  %6 = trunc nuw i8 %5 to i1
  br i1 %6, label %._crit_edge, label %.lr.ph58

.lr.ph58:                                         ; preds = %.preheader
  %7 = getelementptr inbounds nuw i8, ptr %0, i64 149
  %8 = getelementptr inbounds nuw i8, ptr %0, i64 200
  %9 = getelementptr inbounds nuw i8, ptr %0, i64 136
  %10 = getelementptr inbounds nuw i8, ptr %0, i64 40
  br label %13

11:                                               ; preds = %1
  %12 = tail call ptr @__errno_location() #15
  store i32 %3, ptr %12, align 4
  tail call void (ptr, ...) @fatal_abort(ptr noundef nonnull @.str.3, ptr noundef nonnull @__func__._check_io_timeout) #16
  unreachable

13:                                               ; preds = %.lr.ph58, %64
  %14 = load i8, ptr %7, align 1, !range !8, !noundef !9
  %15 = trunc nuw i8 %14 to i1
  br i1 %15, label %._crit_edge, label %16

16:                                               ; preds = %13
  %17 = call i64 @time(ptr noundef null) #14
  %18 = load ptr, ptr %8, align 8
  %19 = getelementptr inbounds nuw i8, ptr %18, i64 40
  %20 = load i32, ptr %19, align 8
  %.not61 = icmp eq i32 %20, 0
  br i1 %.not61, label %.loopexit.thread, label %.lr.ph

.lr.ph:                                           ; preds = %16
  %21 = load ptr, ptr %9, align 8
  %wide.trip.count = zext i32 %20 to i64
  br label %22

22:                                               ; preds = %.lr.ph, %38
  %indvars.iv = phi i64 [ 0, %.lr.ph ], [ %indvars.iv.next, %38 ]
  %.04156 = phi i64 [ 4294967294, %.lr.ph ], [ %.1, %38 ]
  %23 = getelementptr inbounds nuw i64, ptr %21, i64 %indvars.iv
  %24 = load i64, ptr %23, align 8
  %25 = icmp eq i64 %24, 4294967294
  br i1 %25, label %38, label %26

26:                                               ; preds = %22
  %.not48 = icmp sgt i64 %24, %17
  br i1 %.not48, label %35, label %27

27:                                               ; preds = %26
  %28 = trunc nuw nsw i64 %indvars.iv to i32
  store i8 1, ptr %7, align 1
  %29 = call i32 @pthread_cond_broadcast(ptr noundef nonnull %10) #14
  %.not49 = icmp eq i32 %29, 0
  br i1 %.not49, label %33, label %30

30:                                               ; preds = %27
  %31 = tail call ptr @__errno_location() #15
  store i32 %29, ptr %31, align 4
  %32 = call i32 (ptr, ...) @error(ptr noundef nonnull @.str.6, ptr noundef nonnull @.str.2, i32 noundef 1835, ptr noundef nonnull @__func__._check_io_timeout) #14
  br label %33

33:                                               ; preds = %30, %27
  %34 = call i32 (ptr, ...) @error(ptr noundef nonnull @.str.75, i32 noundef %28) #14
  br label %.loopexit

35:                                               ; preds = %26
  %36 = icmp eq i64 %.04156, 4294967294
  %37 = call i64 @llvm.smin.i64(i64 %24, i64 %.04156)
  %spec.select = select i1 %36, i64 %24, i64 %37
  br label %38

38:                                               ; preds = %35, %22
  %.1 = phi i64 [ %.04156, %22 ], [ %spec.select, %35 ]
  %indvars.iv.next = add nuw nsw i64 %indvars.iv, 1
  %exitcond.not = icmp eq i64 %indvars.iv.next, %wide.trip.count
  br i1 %exitcond.not, label %.loopexit, label %22, !llvm.loop !31

.loopexit:                                        ; preds = %38, %33
  %.04155 = phi i64 [ %.04156, %33 ], [ %.1, %38 ]
  %39 = load i8, ptr %7, align 1, !range !8, !noundef !9
  %40 = trunc nuw i8 %39 to i1
  br i1 %40, label %._crit_edge, label %43

.loopexit.thread:                                 ; preds = %16
  %41 = load i8, ptr %7, align 1, !range !8, !noundef !9
  %42 = trunc nuw i8 %41 to i1
  br i1 %42, label %._crit_edge, label %.thread

43:                                               ; preds = %.loopexit
  %44 = icmp eq i64 %.04155, 4294967294
  br i1 %44, label %.thread, label %53

.thread:                                          ; preds = %.loopexit.thread, %43
  %45 = call i32 @get_log_level() #14
  %46 = icmp sgt i32 %45, 4
  br i1 %46, label %47, label %48

47:                                               ; preds = %.thread
  call void (i32, ptr, ...) @log_var(i32 noundef 5, ptr noundef nonnull @.str.76) #14
  br label %48

48:                                               ; preds = %.thread, %47
  %49 = call i32 @pthread_cond_wait(ptr noundef nonnull %10, ptr noundef nonnull %0) #14
  %.not50 = icmp eq i32 %49, 0
  br i1 %.not50, label %64, label %50

50:                                               ; preds = %48
  %51 = tail call ptr @__errno_location() #15
  store i32 %49, ptr %51, align 4
  %52 = call i32 (ptr, ...) @error(ptr noundef nonnull @.str.7, ptr noundef nonnull @.str.2, i32 noundef 1850, ptr noundef nonnull @__func__._check_io_timeout) #14
  br label %64

53:                                               ; preds = %43
  %54 = call i32 @get_log_level() #14
  %55 = icmp sgt i32 %54, 4
  br i1 %55, label %56, label %59

56:                                               ; preds = %53
  %57 = call i64 @time(ptr noundef null) #14
  %58 = sub nsw i64 %.04155, %57
  call void (i32, ptr, ...) @log_var(i32 noundef 5, ptr noundef nonnull @.str.77, i64 noundef %58) #14
  br label %59

59:                                               ; preds = %56, %53
  store i64 %.04155, ptr %2, align 8
  %60 = call i32 @pthread_cond_timedwait(ptr noundef nonnull %10, ptr noundef nonnull %0, ptr noundef nonnull %2) #14
  switch i32 %60, label %61 [
    i32 110, label %64
    i32 0, label %64
  ]

61:                                               ; preds = %59
  %62 = tail call ptr @__errno_location() #15
  store i32 %60, ptr %62, align 4
  %63 = call i32 (ptr, ...) @error(ptr noundef nonnull @.str.78, ptr noundef nonnull @.str.2, i32 noundef 1855, ptr noundef nonnull @__func__._check_io_timeout) #14
  br label %64

64:                                               ; preds = %61, %59, %59, %48, %50
  %65 = load i8, ptr %4, align 4, !range !8, !noundef !9
  %66 = trunc nuw i8 %65 to i1
  br i1 %66, label %._crit_edge, label %13, !llvm.loop !32

._crit_edge:                                      ; preds = %.loopexit, %64, %13, %.loopexit.thread, %.preheader
  %67 = call i32 @pthread_mutex_unlock(ptr noundef nonnull %0) #14
  %.not51 = icmp eq i32 %67, 0
  br i1 %.not51, label %70, label %68

68:                                               ; preds = %._crit_edge
  %69 = tail call ptr @__errno_location() #15
  store i32 %67, ptr %69, align 4
  call void (ptr, ...) @fatal_abort(ptr noundef nonnull @.str.4, ptr noundef nonnull @__func__._check_io_timeout) #16
  unreachable

70:                                               ; preds = %._crit_edge
  call void @llvm.lifetime.end.p0(i64 16, ptr nonnull %2) #14
  ret ptr null
}